target datalayout = "e-m:e-p270:32:32-p271:32:32-p272:64:64-i64:64-i128:128-f80:128-n8:16:32:64-S128"
target triple = "x86_64-pc-linux-gnu"

%struct.pg_prng_state = type { i64, i64 }

; Function Attrs: inlinehint nounwind uwtable
define internal i32 @pg_leftmost_one_pos64(i64 noundef %0) #4 {
  %2 = alloca i64, align 8
  store i64 %0, ptr %2, align 8
  %3 = load i64, ptr %2, align 8
  %4 = call i64 @llvm.ctlz.i64(i64 %3, i1 true)
  %5 = trunc i64 %4 to i32
  %6 = sub i32 63, %5
  ret i32 %6
}

; Function Attrs: nounwind uwtable
define internal i64 @permute(i64 noundef %0, i64 noundef %1, i64 noundef %2) #0 {
  %4 = alloca i64, align 8
  %5 = alloca i64, align 8
  %6 = alloca i64, align 8
  %7 = alloca i64, align 8
  %8 = alloca %struct.pg_prng_state, align 8
  %9 = alloca i64, align 8
  %10 = alloca i64, align 8
  %11 = alloca i32, align 4
  %12 = alloca i64, align 8
  %13 = alloca i32, align 4
  %14 = alloca i32, align 4
  %15 = alloca i64, align 8
  %16 = alloca i64, align 8
  %17 = alloca i64, align 8
  store i64 %0, ptr %5, align 8
  store i64 %1, ptr %6, align 8
  store i64 %2, ptr %7, align 8
  call void @llvm.lifetime.start.p0(i64 16, ptr %8) #14
  call void @llvm.lifetime.start.p0(i64 8, ptr %9) #14
  call void @llvm.lifetime.start.p0(i64 8, ptr %10) #14
  call void @llvm.lifetime.start.p0(i64 4, ptr %11) #14
  call void @llvm.lifetime.start.p0(i64 8, ptr %12) #14
  call void @llvm.lifetime.start.p0(i64 4, ptr %13) #14
  %18 = load i64, ptr %6, align 8
  %19 = icmp slt i64 %18, 2
  br i1 %19, label %20, label %21

20:                                               ; preds = %3
  store i64 0, ptr %4, align 8
  store i32 1, ptr %14, align 4
  br label %116

21:                                               ; preds = %3
  %22 = load i64, ptr %7, align 8
  call void @pg_prng_seed(ptr noundef %8, i64 noundef %22)
  %23 = load i64, ptr %6, align 8
  store i64 %23, ptr %9, align 8
  %24 = load i64, ptr %5, align 8
  %25 = load i64, ptr %9, align 8
  %26 = urem i64 %24, %25
  store i64 %26, ptr %10, align 8
  %27 = load i64, ptr %9, align 8
  %28 = call i32 @pg_leftmost_one_pos64(i64 noundef %27)
  store i32 %28, ptr %11, align 4
  %29 = load i32, ptr %11, align 4
  %30 = zext i32 %29 to i64
  %31 = shl i64 1, %30
  %32 = sub i64 %31, 1
  store i64 %32, ptr %12, align 8
  store i32 0, ptr %13, align 4
  br label %33

33:                                               ; preds = %111, %21
  %34 = load i32, ptr %13, align 4
  %35 = icmp slt i32 %34, 6
  br i1 %35, label %36, label %114

36:                                               ; preds = %33
  call void @llvm.lifetime.start.p0(i64 8, ptr %15) #14
  call void @llvm.lifetime.start.p0(i64 8, ptr %16) #14
  call void @llvm.lifetime.start.p0(i64 8, ptr %17) #14
  %37 = call i64 @pg_prng_uint64(ptr noundef %8)
  %38 = load i64, ptr %12, align 8
  %39 = and i64 %37, %38
  %40 = or i64 %39, 1
  store i64 %40, ptr %15, align 8
  %41 = call i64 @pg_prng_uint64(ptr noundef %8)
  %42 = load i64, ptr %12, align 8
  %43 = and i64 %41, %42
  store i64 %43, ptr %16, align 8
  %44 = load i64, ptr %10, align 8
  %45 = load i64, ptr %12, align 8
  %46 = icmp ule i64 %44, %45
  br i1 %46, label %47, label %65

47:                                               ; preds = %36
  %48 = load i64, ptr %10, align 8
  %49 = load i64, ptr %15, align 8
  %50 = mul i64 %48, %49
  %51 = load i64, ptr %16, align 8
  %52 = xor i64 %50, %51
  %53 = load i64, ptr %12, align 8
  %54 = and i64 %52, %53
  store i64 %54, ptr %10, align 8
  %55 = load i64, ptr %10, align 8
  %56 = shl i64 %55, 1
  %57 = load i64, ptr %12, align 8
  %58 = and i64 %56, %57
  %59 = load i64, ptr %10, align 8
  %60 = load i32, ptr %11, align 4
  %61 = sub i32 %60, 1
  %62 = zext i32 %61 to i64
  %63 = lshr i64 %59, %62
  %64 = or i64 %58, %63
  store i64 %64, ptr %10, align 8
  br label %65

65:                                               ; preds = %47, %36
  %66 = call i64 @pg_prng_uint64(ptr noundef %8)
  %67 = load i64, ptr %12, align 8
  %68 = and i64 %66, %67
  %69 = or i64 %68, 1
  store i64 %69, ptr %15, align 8
  %70 = call i64 @pg_prng_uint64(ptr noundef %8)
  %71 = load i64, ptr %12, align 8
  %72 = and i64 %70, %71
  store i64 %72, ptr %16, align 8
  %73 = load i64, ptr %9, align 8
  %74 = sub i64 %73, 1
  %75 = load i64, ptr %10, align 8
  %76 = sub i64 %74, %75
  store i64 %76, ptr %17, align 8
  %77 = load i64, ptr %17, align 8
  %78 = load i64, ptr %12, align 8
  %79 = icmp ule i64 %77, %78
  br i1 %79, label %80, label %102

80:                                               ; preds = %65
  %81 = load i64, ptr %17, align 8
  %82 = load i64, ptr %15, align 8
  %83 = mul i64 %81, %82
  %84 = load i64, ptr %16, align 8
  %85 = xor i64 %83, %84
  %86 = load i64, ptr %12, align 8
  %87 = and i64 %85, %86
  store i64 %87, ptr %17, align 8
  %88 = load i64, ptr %17, align 8
  %89 = shl i64 %88, 1
  %90 = load i64, ptr %12, align 8
  %91 = and i64 %89, %90
  %92 = load i64, ptr %17, align 8
  %93 = load i32, ptr %11, align 4
  %94 = sub i32 %93, 1
  %95 = zext i32 %94 to i64
  %96 = lshr i64 %92, %95
  %97 = or i64 %91, %96
  store i64 %97, ptr %17, align 8
  %98 = load i64, ptr %9, align 8
  %99 = sub i64 %98, 1
  %100 = load i64, ptr %17, align 8
  %101 = sub i64 %99, %100
  store i64 %101, ptr %10, align 8
  br label %102

102:                                              ; preds = %80, %65
  %103 = load i64, ptr %9, align 8
  %104 = sub i64 %103, 1
  %105 = call i64 @pg_prng_uint64_range(ptr noundef %8, i64 noundef 0, i64 noundef %104)
  store i64 %105, ptr %16, align 8
  %106 = load i64, ptr %10, align 8
  %107 = load i64, ptr %16, align 8
  %108 = add i64 %106, %107
  %109 = load i64, ptr %9, align 8
  %110 = urem i64 %108, %109
  store i64 %110, ptr %10, align 8
  call void @llvm.lifetime.end.p0(i64 8, ptr %17) #14
  call void @llvm.lifetime.end.p0(i64 8, ptr %16) #14
  call void @llvm.lifetime.end.p0(i64 8, ptr %15) #14
  br label %111

111:                                              ; preds = %102
  %112 = load i32, ptr %13, align 4
  %113 = add i32 %112, 1
  store i32 %113, ptr %13, align 4
  br label %33, !llvm.loop !78

114:                                              ; preds = %33
  %115 = load i64, ptr %10, align 8
  store i64 %115, ptr %4, align 8
  store i32 1, ptr %14, align 4
  br label %116

116:                                              ; preds = %114, %20
  call void @llvm.lifetime.end.p0(i64 4, ptr %13) #14
  call void @llvm.lifetime.end.p0(i64 8, ptr %12) #14
  call void @llvm.lifetime.end.p0(i64 4, ptr %11) #14
  call void @llvm.lifetime.end.p0(i64 8, ptr %10) #14
  call void @llvm.lifetime.end.p0(i64 8, ptr %9) #14
  call void @llvm.lifetime.end.p0(i64 16, ptr %8) #14
  %117 = load i64, ptr %4, align 8
  ret i64 %117
}