; Function Attrs: nounwind uwtable
define internal fastcc range(i64 0, 9223372036854775807) i64 @permute(i64 noundef %0, i64 noundef range(i64 1, -9223372036854775808) %1, i64 noundef %2) unnamed_addr #0 {
  %4 = alloca %struct.pg_prng_state, align 8
  call void @llvm.lifetime.start.p0(i64 16, ptr nonnull %4) #25
  %5 = icmp samesign ult i64 %1, 2
  br i1 %5, label %.loopexit, label %6

6:                                                ; preds = %3
  call void @pg_prng_seed(ptr noundef nonnull %4, i64 noundef %2) #25
  %7 = call range(i64 1, 65) i64 @llvm.ctlz.i64(i64 range(i64 2, -9223372036854775808) %1, i1 true)
  %8 = xor i64 %7, 63
  %notmask = shl nsw i64 -1, %8
  %9 = xor i64 %notmask, -1
  %.04450 = urem i64 %0, %1
  %10 = sub nuw nsw i64 62, %7
  %11 = add nsw i64 %1, -1
  br label %12

12:                                               ; preds = %6, %40
  %.04452 = phi i64 [ %.04450, %6 ], [ %.044, %40 ]
  %.051 = phi i32 [ 0, %6 ], [ %43, %40 ]
  %13 = call i64 @pg_prng_uint64(ptr noundef nonnull %4) #25
  %14 = call i64 @pg_prng_uint64(ptr noundef nonnull %4) #25
  %.not = icmp samesign ugt i64 %.04452, %9
  br i1 %.not, label %25, label %15

15:                                               ; preds = %12
  %16 = and i64 %13, %9
  %17 = or i64 %16, 1
  %18 = mul i64 %17, %.04452
  %19 = xor i64 %18, %14
  %20 = and i64 %19, %9
  %21 = shl nuw nsw i64 %20, 1
  %22 = and i64 %21, %9
  %23 = lshr i64 %20, %10
  %24 = or i64 %22, %23
  br label %25

25:                                               ; preds = %15, %12
  %.1 = phi i64 [ %24, %15 ], [ %.04452, %12 ]
  %26 = call i64 @pg_prng_uint64(ptr noundef nonnull %4) #25
  %27 = call i64 @pg_prng_uint64(ptr noundef nonnull %4) #25
  %28 = sub nsw i64 %11, %.1
  %.not49 = icmp ugt i64 %28, %9
  br i1 %.not49, label %40, label %29

29:                                               ; preds = %25
  %30 = and i64 %26, %9
  %31 = or i64 %30, 1
  %32 = mul i64 %31, %28
  %33 = xor i64 %32, %27
  %34 = and i64 %33, %9
  %35 = shl nuw nsw i64 %34, 1
  %36 = and i64 %35, %9
  %37 = lshr i64 %34, %10
  %38 = or i64 %36, %37
  %39 = sub nsw i64 %11, %38
  br label %40

40:                                               ; preds = %29, %25
  %.2 = phi i64 [ %39, %29 ], [ %.1, %25 ]
  %41 = call i64 @pg_prng_uint64_range(ptr noundef nonnull %4, i64 noundef 0, i64 noundef %11) #25
  %42 = add i64 %41, %.2
  %43 = add nuw nsw i32 %.051, 1
  %.044 = urem i64 %42, %1
  %exitcond.not = icmp eq i32 %43, 6
  br i1 %exitcond.not, label %.loopexit, label %12, !llvm.loop !80

.loopexit:                                        ; preds = %40, %3
  %.043 = phi i64 [ 0, %3 ], [ %.044, %40 ]
  call void @llvm.lifetime.end.p0(i64 16, ptr nonnull %4) #25
  ret i64 %.043
}